ccopy_reg
_reconstructor
p0
(cdatareviewwindow
DataReviewSettings
p1
c__builtin__
object
p2
Ntp3
Rp4
(dp5
S'export_format'
p6
S'Microsoft Excel 97 (BIFF8) (*.xls)'
p7
sS'export_launch'
p8
I01
sS'load_path'
p9
S'C:\\Users\\CAFEE ENGINEER\\Desktop\\abc'
p10
sS'export_absolute_time'
p11
cgtk._gtk
StateType
p12
(I0
tp13
Rp14
(dp15
bsS'export_downsample'
p16
I1
sS'load_show_timeseries'
p17
I00
sS'export_full'
p18
I00
sS'export_path'
p19
S'C:\\Users\\CAFEE ENGINEER\\Desktop'
p20
sb.